; Function Attrs: mustprogress nounwind uwtable
define dso_local noundef ptr @_ZNK5clang28SubstNonTypeTemplateParmExpr12getParameterEv(ptr noundef nonnull readonly align 8 captures(none) dereferenceable(36) %0) local_unnamed_addr #4 align 2 {
  %2 = getelementptr inbounds nuw i8, ptr %0, i64 24
  %.0.copyload.i.i.i.i = load i64, ptr %2, align 8
  %3 = and i64 %.0.copyload.i.i.i.i, -8
  %4 = inttoptr i64 %3 to ptr
  %5 = tail call noundef ptr @_ZN5clang32getReplacedTemplateParameterListEPNS_4DeclE(ptr noundef %4) #16
  %6 = getelementptr inbounds nuw i8, ptr %5, i64 16
  %7 = getelementptr inbounds nuw i8, ptr %0, i64 32
  %8 = load i32, ptr %7, align 8
  %9 = and i32 %8, 32767
  %10 = zext nneg i32 %9 to i64
  %11 = getelementptr inbounds nuw ptr, ptr %6, i64 %10
  %12 = load ptr, ptr %11, align 8
  ret ptr %12
}